; Function Attrs: nounwind uwtable
define internal i64 @phar_zend_stream_reader(ptr nocapture noundef readonly %0, ptr noundef %1, i64 noundef %2) #0 {
  %4 = getelementptr inbounds i8, ptr %0, i64 324
  %5 = load i16, ptr %4, align 4
  %6 = and i16 %5, 256
  %.not.i = icmp eq i16 %6, 0
  br i1 %.not.i, label %7, label %9

7:                                                ; preds = %3
  %8 = getelementptr inbounds i8, ptr %0, i64 256
  br label %phar_get_pharfp.exit

9:                                                ; preds = %3
  %10 = load ptr, ptr getelementptr inbounds (%struct._zend_phar_globals, ptr @phar_globals, i64 0, i32 2), align 8
  %11 = getelementptr inbounds i8, ptr %0, i64 320
  %12 = load i32, ptr %11, align 8
  %13 = zext i32 %12 to i64
  %14 = getelementptr inbounds %struct._phar_entry_fp, ptr %10, i64 %13
  br label %phar_get_pharfp.exit

phar_get_pharfp.exit:                             ; preds = %7, %9
  %.0.in.i = phi ptr [ %14, %9 ], [ %8, %7 ]
  %.0.i = load ptr, ptr %.0.in.i, align 8
  %15 = tail call i64 @_php_stream_read(ptr noundef %.0.i, ptr noundef %1, i64 noundef %2) #23
  ret i64 %15
}